target datalayout = "e-m:e-p270:32:32-p271:32:32-p272:64:64-i64:64-i128:128-f80:128-n8:16:32:64-S128"
target triple = "x86_64-pc-linux-gnu"

%struct.pm_scope_node = type { %struct.pm_node, ptr, ptr, ptr, ptr, %struct.pm_constant_id_list_t, ptr, ptr, ptr, ptr, i32, ptr, ptr, i32, ptr }
%struct.pm_node = type { i16, i16, i32, %struct.pm_location_t }
%struct.pm_location_t = type { ptr, ptr }
%struct.pm_constant_id_list_t = type { i64, i64, ptr }

; Function Attrs: nounwind sspstrong uwtable
define hidden void @pm_scope_node_destroy(ptr noundef %0) #0 {
  %2 = alloca ptr, align 8
  store ptr %0, ptr %2, align 8, !tbaa !292
  %3 = load ptr, ptr %2, align 8, !tbaa !292
  %4 = getelementptr inbounds nuw %struct.pm_scope_node, ptr %3, i32 0, i32 12
  %5 = load ptr, ptr %4, align 8, !tbaa !377
  %6 = icmp ne ptr %5, null
  br i1 %6, label %7, label %11

7:                                                ; preds = %1
  %8 = load ptr, ptr %2, align 8, !tbaa !292
  %9 = getelementptr inbounds nuw %struct.pm_scope_node, ptr %8, i32 0, i32 12
  %10 = load ptr, ptr %9, align 8, !tbaa !377
  call void @rb_st_free_table(ptr noundef %10)
  br label %11

11:                                               ; preds = %7, %1
  ret void
}