; Function Attrs: nounwind sspstrong uwtable
define hidden void @pm_scope_node_destroy(ptr noundef readonly captures(none) %0) local_unnamed_addr #1 {
  %2 = getelementptr inbounds nuw i8, ptr %0, i64 128
  %3 = load ptr, ptr %2, align 8, !tbaa !454
  %.not = icmp eq ptr %3, null
  br i1 %.not, label %5, label %4

4:                                                ; preds = %1
  tail call void @rb_st_free_table(ptr noundef nonnull %3) #38
  br label %5

5:                                                ; preds = %4, %1
  ret void
}